; Function Attrs: nounwind uwtable
define hidden ptr @SXNET_get_id_INTEGER(ptr noundef readonly captures(none) %sx, ptr noundef %zone) local_unnamed_addr #0 {
entry:
  %ids = getelementptr inbounds nuw i8, ptr %sx, i64 8
  %0 = load ptr, ptr %ids, align 8
  %call5 = tail call i64 @sk_num(ptr noundef %0) #4
  %cmp6.not = icmp eq i64 %call5, 0
  br i1 %cmp6.not, label %return, label %for.body

for.cond:                                         ; preds = %for.body
  %inc = add nuw i64 %i.07, 1
  %1 = load ptr, ptr %ids, align 8
  %call = tail call i64 @sk_num(ptr noundef %1) #4
  %cmp = icmp ult i64 %inc, %call
  br i1 %cmp, label %for.body, label %return, !llvm.loop !10

for.body:                                         ; preds = %entry, %for.cond
  %i.07 = phi i64 [ %inc, %for.cond ], [ 0, %entry ]
  %2 = load ptr, ptr %ids, align 8
  %call2 = tail call ptr @sk_value(ptr noundef %2, i64 noundef %i.07) #4
  %3 = load ptr, ptr %call2, align 8
  %call4 = tail call i32 @ASN1_STRING_cmp(ptr noundef %3, ptr noundef %zone) #4
  %tobool.not = icmp eq i32 %call4, 0
  br i1 %tobool.not, label %if.then, label %for.cond

if.then:                                          ; preds = %for.body
  %user = getelementptr inbounds nuw i8, ptr %call2, i64 8
  %4 = load ptr, ptr %user, align 8
  br label %return

return:                                           ; preds = %for.cond, %entry, %if.then
  %retval.0 = phi ptr [ %4, %if.then ], [ null, %entry ], [ null, %for.cond ]
  ret ptr %retval.0
}